; Function Attrs: nounwind uwtable
define hidden void @_mi_page_use_delayed_free(ptr noundef captures(none) %0, i32 noundef %1, i1 noundef zeroext %2) local_unnamed_addr #1 {
  %4 = getelementptr inbounds nuw i8, ptr %0, i64 56
  %5 = zext i32 %1 to i64
  br label %.critedge.outer.i

.critedge.outer.i:                                ; preds = %.critedge.outer.i.backedge, %3
  %.019.ph.i = phi i64 [ 0, %3 ], [ %.019.ph.i.be, %.critedge.outer.i.backedge ]
  br label %.critedge.i

.critedge.i:                                      ; preds = %17, %.critedge.outer.i
  %6 = load atomic i64, ptr %4 acquire, align 8
  %7 = and i64 %6, -4
  %8 = or i64 %7, %5
  %9 = trunc i64 %6 to i32
  %10 = and i32 %9, 3
  %.not.not.not.i.not = icmp eq i32 %10, 1
  br i1 %.not.not.not.i.not, label %11, label %12, !prof !27

11:                                               ; preds = %.critedge.i
  %exitcond.i = icmp eq i64 %.019.ph.i, 4
  br i1 %exitcond.i, label %_mi_page_try_use_delayed_free.exit, label %15

12:                                               ; preds = %.critedge.i
  %13 = icmp ne i32 %1, %10
  %14 = icmp ne i32 %10, 3
  %or.cond.not.i = or i1 %2, %14
  %or.cond.i = and i1 %13, %or.cond.not.i
  br i1 %or.cond.i, label %17, label %20

15:                                               ; preds = %11
  %16 = add nuw nsw i64 %.019.ph.i, 1
  tail call void @llvm.x86.sse2.pause()
  br label %.critedge.outer.i.backedge

.critedge.outer.i.backedge:                       ; preds = %15, %_mi_page_try_use_delayed_free.exit
  %.019.ph.i.be = phi i64 [ %16, %15 ], [ 0, %_mi_page_try_use_delayed_free.exit ]
  br label %.critedge.outer.i, !llvm.loop !13

17:                                               ; preds = %12
  %18 = cmpxchg weak ptr %4, i64 %6, i64 %8 release monotonic, align 8
  %19 = extractvalue { i64, i1 } %18, 1
  br i1 %19, label %20, label %.critedge.i, !llvm.loop !15

_mi_page_try_use_delayed_free.exit:               ; preds = %11
  tail call void @llvm.x86.sse2.pause()
  br label %.critedge.outer.i.backedge

20:                                               ; preds = %12, %17
  ret void
}